target datalayout = "e-m:e-p270:32:32-p271:32:32-p272:64:64-i64:64-i128:128-f80:128-n8:16:32:64-S128"
target triple = "x86_64-pc-linux-gnu"

%struct.Curl_ssl = type { %struct.curl_ssl_backend, i32, i64, ptr, ptr, ptr, ptr, ptr, ptr, ptr, ptr, ptr, ptr, ptr, ptr, ptr, ptr, ptr, ptr, ptr, ptr, ptr, ptr, ptr, ptr, ptr, ptr, ptr }
%struct.curl_ssl_backend = type { i32, ptr }
%struct.alpn_spec = type { [3 x [10 x i8]], i64 }
%struct.Curl_easy = type { i32, i64, ptr, ptr, ptr, %struct.Curl_llist_element, %struct.Curl_llist_element, i32, i32, %struct.Curl_message, %struct.easy_pollset, %struct.Names, ptr, ptr, ptr, %struct.SingleRequest, %struct.UserDefined, ptr, ptr, %struct.Progress, %struct.UrlState, ptr, %struct.PureInfo, %struct.curl_tlssessioninfo }
%struct.Curl_llist_element = type { ptr, ptr, ptr }
%struct.Curl_message = type { %struct.Curl_llist_element, %struct.CURLMsg }
%struct.CURLMsg = type { i32, ptr, %union.anon }
%union.anon = type { ptr }
%struct.easy_pollset = type { [5 x i32], i32, [5 x i8] }
%struct.Names = type { ptr, i32 }
%struct.SingleRequest = type <{ i64, i64, i64, i64, i64, %struct.curltime, i32, i32, i32, i32, i64, i32, i32, %struct.curltime, i32, i32, ptr, i64, i64, ptr, ptr, i64, ptr, %union.anon.0, ptr, [2 x i8], i8, i16, [3 x i8] }>
%struct.curltime = type { i64, i32 }
%union.anon.0 = type { ptr }
%struct.UserDefined = type <{ ptr, ptr, ptr, ptr, ptr, ptr, i16, [6 x i8], i64, i64, i64, ptr, ptr, i64, i16, i16, [4 x i8], ptr, ptr, ptr, ptr, ptr, ptr, ptr, ptr, ptr, ptr, ptr, ptr, ptr, ptr, ptr, ptr, ptr, ptr, ptr, ptr, ptr, ptr, ptr, i32, i32, i32, i32, i64, i64, i64, i64, i64, i64, i64, i64, ptr, ptr, %struct.curl_mimepart, ptr, ptr, i64, i8, i8, i8, [5 x i8], %struct.ssl_config_data, %struct.ssl_config_data, ptr, i16, i8, i8, [4 x i8], %struct.ssl_general_config, i32, i32, i32, [4 x i8], ptr, ptr, i8, [7 x i8], i64, i8, i8, i8, i8, i32, ptr, ptr, ptr, i8, i8, [2 x i8], i32, [80 x ptr], [8 x ptr], i32, i32, i32, [4 x i8], ptr, ptr, ptr, ptr, ptr, i8, [3 x i8], i32, i32, [4 x i8], i64, %struct.Curl_data_priority, ptr, ptr, i64, ptr, ptr, ptr, ptr, ptr, i8, [3 x i8], i32, i8, i8, i56, [6 x i8] }>
%struct.curl_mimepart = type { ptr, ptr, i32, i32, ptr, ptr, ptr, ptr, ptr, ptr, ptr, ptr, ptr, ptr, ptr, i64, %struct.mime_state, ptr, %struct.mime_encoder_state, i64 }
%struct.mime_state = type { i32, ptr, i64 }
%struct.mime_encoder_state = type { i64, i64, i64, [256 x i8] }
%struct.ssl_config_data = type { %struct.ssl_primary_config, i64, ptr, ptr, ptr, ptr, ptr, ptr, ptr, i8 }
%struct.ssl_primary_config = type { ptr, ptr, ptr, ptr, ptr, ptr, ptr, ptr, ptr, ptr, ptr, ptr, i8, i32, i8, i8 }
%struct.ssl_general_config = type { i64, i32 }
%struct.Curl_data_priority = type { ptr, ptr, i32, i8 }
%struct.Progress = type { i64, i64, i64, i64, i64, i64, i32, i32, i64, i64, i64, i64, i64, i64, i64, i64, i64, i64, %struct.curltime, %struct.curltime, %struct.curltime, %struct.curltime, %struct.curltime, i64, %struct.curltime, i64, [6 x i64], [6 x %struct.curltime], i32, i8 }
%struct.UrlState = type { ptr, %struct.curltime, i64, i64, %struct.dynbuf, ptr, ptr, ptr, i64, ptr, i32, i32, i32, ptr, i64, [3 x %struct.tempbuf], i32, i32, ptr, i64, i32, ptr, %struct.digestdata, %struct.digestdata, %struct.auth, %struct.auth, %struct.Curl_async, ptr, %struct.curltime, %struct.Curl_tree, %struct.Curl_llist, [15 x %struct.time_node], ptr, i8, i64, ptr, i64, i64, %struct.Curl_data_priority, ptr, ptr, ptr, %struct.urlpieces, ptr, ptr, ptr, ptr, ptr, i64, %struct.dynbuf, %struct.Curl_llist, [2 x %struct.curl_header], ptr, i32, ptr, %struct.dynamically_allocated_data, i8, i8, i8, i8, i24 }
%struct.tempbuf = type { %struct.dynbuf, i32, i8 }
%struct.digestdata = type { ptr, ptr, ptr, ptr, ptr, ptr, i32, i8, i8 }
%struct.auth = type { i64, i64, i64, i8 }
%struct.Curl_async = type { ptr, ptr, ptr, ptr, i32, i32, i8 }
%struct.Curl_tree = type { ptr, ptr, ptr, ptr, %struct.curltime, ptr }
%struct.time_node = type { %struct.Curl_llist_element, %struct.curltime, i32 }
%struct.urlpieces = type { ptr, ptr, ptr, ptr, ptr, ptr, ptr, ptr }
%struct.dynbuf = type { ptr, i64, i64, i64 }
%struct.Curl_llist = type { ptr, ptr, ptr, i64 }
%struct.curl_header = type { ptr, ptr, i64, i64, i32, ptr }
%struct.dynamically_allocated_data = type { ptr, ptr, ptr, ptr, ptr, ptr, ptr, ptr, ptr, ptr, ptr, ptr, ptr, ptr }
%struct.PureInfo = type { i32, i32, i32, i64, i64, i64, i64, i64, ptr, ptr, i64, i32, [46 x i8], i32, i32, [46 x i8], i32, ptr, i32, %struct.curl_certinfo, i32, i8 }
%struct.curl_certinfo = type { i32, ptr }
%struct.curl_tlssessioninfo = type { i32, ptr }
%struct.connectdata = type { %struct.Curl_llist_element, ptr, ptr, i64, ptr, ptr, %struct.hostname, ptr, ptr, %struct.hostname, %struct.proxy_info, %struct.proxy_info, [46 x i8], ptr, ptr, ptr, ptr, ptr, %struct.curltime, %struct.curltime, %struct.curltime, [2 x i32], [2 x ptr], [2 x ptr], [2 x ptr], %struct.ssl_primary_config, %struct.ssl_primary_config, %struct.ConnectBits, ptr, ptr, %struct.curltime, i32, i32, %struct.Curl_llist, ptr, ptr, i32, i32, %struct.ntlmdata, %struct.ntlmdata, %union.anon.1, ptr, ptr, i16, i32, i32, i32, i32, i32, i16, i16, i8, i8, i8, i8, i8, i8, i8 }
%struct.hostname = type { ptr, ptr, ptr, ptr }
%struct.proxy_info = type { %struct.hostname, i32, i8, ptr, ptr }
%struct.ConnectBits = type { i32 }
%struct.ntlmdata = type { i32, [8 x i8], i32, ptr }
%union.anon.1 = type { %struct.ftp_conn }
%struct.ftp_conn = type { %struct.pingpong, ptr, ptr, ptr, ptr, ptr, ptr, ptr, i8, i64, ptr, i64, i32, i32, i32, i32, i32, i16, i8, i8, i8, i8, i8 }
%struct.pingpong = type { i64, i8, ptr, i64, i64, %struct.curltime, i64, %struct.dynbuf, %struct.dynbuf, i64, i64, ptr, ptr }
%struct.ssl_connect_data = type { i32, i32, %struct.ssl_peer, ptr, ptr, %struct.cf_call_data, %struct.curltime, i32, i8 }
%struct.ssl_peer = type { ptr, ptr, ptr, i8 }
%struct.cf_call_data = type { ptr }

@Curl_ssl = dso_local global ptr @Curl_ssl_openssl, align 8
@Curl_cfree = external global ptr, align 8
@Curl_ccalloc = external global ptr, align 8
@ALPN_SPEC_H2_H11 = internal constant %struct.alpn_spec { [3 x [10 x i8]] [[10 x i8] c"h2\00\00\00\00\00\00\00\00", [10 x i8] c"http/1.1\00\00", [10 x i8] zeroinitializer], i64 2 }, align 8
@ALPN_SPEC_H11 = internal constant %struct.alpn_spec { [3 x [10 x i8]] [[10 x i8] c"http/1.1\00\00", [10 x i8] zeroinitializer, [10 x i8] zeroinitializer], i64 1 }, align 8

; Function Attrs: nounwind uwtable
define internal void @cf_ctx_free(ptr noundef %0) #0 {
  %2 = alloca ptr, align 8
  store ptr %0, ptr %2, align 8
  %3 = load ptr, ptr %2, align 8
  %4 = icmp ne ptr %3, null
  br i1 %4, label %5, label %12

5:                                                ; preds = %1
  %6 = load ptr, ptr @Curl_cfree, align 8
  %7 = load ptr, ptr %2, align 8
  %8 = getelementptr inbounds %struct.ssl_connect_data, ptr %7, i32 0, i32 4
  %9 = load ptr, ptr %8, align 8
  call void %6(ptr noundef %9)
  %10 = load ptr, ptr @Curl_cfree, align 8
  %11 = load ptr, ptr %2, align 8
  call void %10(ptr noundef %11)
  br label %12

12:                                               ; preds = %5, %1
  ret void
}

; Function Attrs: nounwind uwtable
define internal ptr @cf_ctx_new(ptr noundef %0, ptr noundef %1) #0 {
  %3 = alloca ptr, align 8
  %4 = alloca ptr, align 8
  %5 = alloca ptr, align 8
  %6 = alloca ptr, align 8
  store ptr %0, ptr %4, align 8
  store ptr %1, ptr %5, align 8
  %7 = load ptr, ptr @Curl_ccalloc, align 8
  %8 = call ptr %7(i64 noundef 1, i64 noundef 88)
  store ptr %8, ptr %6, align 8
  %9 = load ptr, ptr %6, align 8
  %10 = icmp ne ptr %9, null
  br i1 %10, label %12, label %11

11:                                               ; preds = %2
  store ptr null, ptr %3, align 8
  br label %32

12:                                               ; preds = %2
  %13 = load ptr, ptr %5, align 8
  %14 = load ptr, ptr %6, align 8
  %15 = getelementptr inbounds %struct.ssl_connect_data, ptr %14, i32 0, i32 3
  store ptr %13, ptr %15, align 8
  %16 = load ptr, ptr @Curl_ccalloc, align 8
  %17 = load ptr, ptr @Curl_ssl, align 8
  %18 = getelementptr inbounds %struct.Curl_ssl, ptr %17, i32 0, i32 2
  %19 = load i64, ptr %18, align 8
  %20 = call ptr %16(i64 noundef 1, i64 noundef %19)
  %21 = load ptr, ptr %6, align 8
  %22 = getelementptr inbounds %struct.ssl_connect_data, ptr %21, i32 0, i32 4
  store ptr %20, ptr %22, align 8
  %23 = load ptr, ptr %6, align 8
  %24 = getelementptr inbounds %struct.ssl_connect_data, ptr %23, i32 0, i32 4
  %25 = load ptr, ptr %24, align 8
  %26 = icmp ne ptr %25, null
  br i1 %26, label %30, label %27

27:                                               ; preds = %12
  %28 = load ptr, ptr @Curl_cfree, align 8
  %29 = load ptr, ptr %6, align 8
  call void %28(ptr noundef %29)
  store ptr null, ptr %3, align 8
  br label %32

30:                                               ; preds = %12
  %31 = load ptr, ptr %6, align 8
  store ptr %31, ptr %3, align 8
  br label %32

32:                                               ; preds = %30, %27, %11
  %33 = load ptr, ptr %3, align 8
  ret ptr %33
}

; Function Attrs: nounwind uwtable
define internal ptr @alpn_get_spec(i32 noundef %0, i1 noundef zeroext %1) #0 {
  %3 = alloca ptr, align 8
  %4 = alloca i32, align 4
  %5 = alloca i8, align 1
  store i32 %0, ptr %4, align 4
  %6 = zext i1 %1 to i8
  store i8 %6, ptr %5, align 1
  %7 = load i8, ptr %5, align 1
  %8 = trunc i8 %7 to i1
  br i1 %8, label %10, label %9

9:                                                ; preds = %2
  store ptr null, ptr %3, align 8
  br label %15

10:                                               ; preds = %2
  %11 = load i32, ptr %4, align 4
  %12 = icmp sge i32 %11, 3
  br i1 %12, label %13, label %14

13:                                               ; preds = %10
  store ptr @ALPN_SPEC_H2_H11, ptr %3, align 8
  br label %15

14:                                               ; preds = %10
  store ptr @ALPN_SPEC_H11, ptr %3, align 8
  br label %15

15:                                               ; preds = %14, %13, %9
  %16 = load ptr, ptr %3, align 8
  ret ptr %16
}

; Function Attrs: nounwind uwtable
define internal i32 @cf_ssl_create(ptr noundef %0, ptr noundef %1, ptr noundef %2) #0 {
  %4 = alloca ptr, align 8
  %5 = alloca ptr, align 8
  %6 = alloca ptr, align 8
  %7 = alloca ptr, align 8
  %8 = alloca ptr, align 8
  %9 = alloca i32, align 4
  store ptr %0, ptr %4, align 8
  store ptr %1, ptr %5, align 8
  store ptr %2, ptr %6, align 8
  store ptr null, ptr %7, align 8
  br label %10

10:                                               ; preds = %3
  br label %11

11:                                               ; preds = %10
  %12 = load ptr, ptr %5, align 8
  %13 = load ptr, ptr %5, align 8
  %14 = getelementptr inbounds %struct.Curl_easy, ptr %13, i32 0, i32 20
  %15 = getelementptr inbounds %struct.UrlState, ptr %14, i32 0, i32 56
  %16 = load i8, ptr %15, align 8
  %17 = zext i8 %16 to i32
  %18 = load ptr, ptr %6, align 8
  %19 = getelementptr inbounds %struct.connectdata, ptr %18, i32 0, i32 27
  %20 = load i32, ptr %19, align 8
  %21 = lshr i32 %20, 25
  %22 = and i32 %21, 1
  %23 = icmp ne i32 %22, 0
  %24 = call ptr @alpn_get_spec(i32 noundef %17, i1 noundef zeroext %23)
  %25 = call ptr @cf_ctx_new(ptr noundef %12, ptr noundef %24)
  store ptr %25, ptr %8, align 8
  %26 = load ptr, ptr %8, align 8
  %27 = icmp ne ptr %26, null
  br i1 %27, label %29, label %28

28:                                               ; preds = %11
  store i32 27, ptr %9, align 4
  br label %32

29:                                               ; preds = %11
  %30 = load ptr, ptr %8, align 8
  %31 = call i32 @Curl_cf_create(ptr noundef %7, ptr noundef @Curl_cft_ssl, ptr noundef %30)
  store i32 %31, ptr %9, align 4
  br label %32

32:                                               ; preds = %29, %28
  %33 = load i32, ptr %9, align 4
  %34 = icmp ne i32 %33, 0
  br i1 %34, label %35, label %37

35:                                               ; preds = %32
  %36 = load ptr, ptr %8, align 8
  call void @cf_ctx_free(ptr noundef %36)
  br label %37

37:                                               ; preds = %35, %32
  %38 = load i32, ptr %9, align 4
  %39 = icmp ne i32 %38, 0
  br i1 %39, label %40, label %41

40:                                               ; preds = %37
  br label %43

41:                                               ; preds = %37
  %42 = load ptr, ptr %7, align 8
  br label %43

43:                                               ; preds = %41, %40
  %44 = phi ptr [ null, %40 ], [ %42, %41 ]
  %45 = load ptr, ptr %4, align 8
  store ptr %44, ptr %45, align 8
  %46 = load i32, ptr %9, align 4
  ret i32 %46
}

; Function Attrs: nounwind uwtable
define dso_local i32 @Curl_ssl_cfilter_add(ptr noundef %0, ptr noundef %1, i32 noundef %2) #0 {
  %4 = alloca ptr, align 8
  %5 = alloca ptr, align 8
  %6 = alloca i32, align 4
  %7 = alloca ptr, align 8
  %8 = alloca i32, align 4
  store ptr %0, ptr %4, align 8
  store ptr %1, ptr %5, align 8
  store i32 %2, ptr %6, align 4
  %9 = load ptr, ptr %4, align 8
  %10 = load ptr, ptr %5, align 8
  %11 = call i32 @cf_ssl_create(ptr noundef %7, ptr noundef %9, ptr noundef %10)
  store i32 %11, ptr %8, align 4
  %12 = load i32, ptr %8, align 4
  %13 = icmp ne i32 %12, 0
  br i1 %13, label %19, label %14

14:                                               ; preds = %3
  %15 = load ptr, ptr %4, align 8
  %16 = load ptr, ptr %5, align 8
  %17 = load i32, ptr %6, align 4
  %18 = load ptr, ptr %7, align 8
  call void @Curl_conn_cf_add(ptr noundef %15, ptr noundef %16, i32 noundef %17, ptr noundef %18)
  br label %19

19:                                               ; preds = %14, %3
  %20 = load i32, ptr %8, align 4
  ret i32 %20
}