; Function Attrs: nounwind uwtable
define dso_local i32 @Curl_ssl_cfilter_add(ptr noundef %0, ptr noundef %1, i32 noundef %2) local_unnamed_addr #2 {
  %4 = alloca ptr, align 8
  %5 = getelementptr i8, ptr %0, i64 4936
  %.val = load i8, ptr %5, align 8
  %6 = getelementptr i8, ptr %1, i64 672
  %.val6 = load i32, ptr %6, align 8
  call void @llvm.lifetime.start.p0(i64 8, ptr nonnull %4)
  store ptr null, ptr %4, align 8
  %7 = load ptr, ptr @Curl_ccalloc, align 8
  %8 = tail call ptr %7(i64 noundef 1, i64 noundef 88) #18
  %.not.i.i = icmp eq ptr %8, null
  br i1 %.not.i.i, label %cf_ssl_create.exit.thread, label %9

9:                                                ; preds = %3
  %10 = and i32 %.val6, 33554432
  %.not.i = icmp eq i32 %10, 0
  %11 = icmp ugt i8 %.val, 2
  %ALPN_SPEC_H2_H11.ALPN_SPEC_H11.i.i = select i1 %11, ptr @ALPN_SPEC_H2_H11, ptr @ALPN_SPEC_H11
  %.0.i.i = select i1 %.not.i, ptr null, ptr %ALPN_SPEC_H2_H11.ALPN_SPEC_H11.i.i
  %12 = getelementptr inbounds nuw i8, ptr %8, i64 40
  store ptr %.0.i.i, ptr %12, align 8
  %13 = load ptr, ptr @Curl_ccalloc, align 8
  %14 = load ptr, ptr @Curl_ssl, align 8
  %15 = getelementptr inbounds nuw i8, ptr %14, i64 24
  %16 = load i64, ptr %15, align 8
  %17 = tail call ptr %13(i64 noundef 1, i64 noundef %16) #18
  %18 = getelementptr inbounds nuw i8, ptr %8, i64 48
  store ptr %17, ptr %18, align 8
  %.not9.i.i = icmp eq ptr %17, null
  br i1 %.not9.i.i, label %19, label %21

19:                                               ; preds = %9
  %20 = load ptr, ptr @Curl_cfree, align 8
  tail call void %20(ptr noundef nonnull %8) #18
  br label %cf_ssl_create.exit.thread

21:                                               ; preds = %9
  %22 = call i32 @Curl_cf_create(ptr noundef nonnull %4, ptr noundef nonnull @Curl_cft_ssl, ptr noundef nonnull %8) #18
  %.not10.i = icmp eq i32 %22, 0
  br i1 %.not10.i, label %27, label %23

23:                                               ; preds = %21
  %24 = load ptr, ptr @Curl_cfree, align 8
  %25 = load ptr, ptr %18, align 8
  call void %24(ptr noundef %25) #18
  %26 = load ptr, ptr @Curl_cfree, align 8
  call void %26(ptr noundef nonnull %8) #18
  br label %cf_ssl_create.exit.thread

cf_ssl_create.exit.thread:                        ; preds = %23, %19, %3
  %.01224.i.ph = phi i32 [ 27, %3 ], [ 27, %19 ], [ %22, %23 ]
  call void @llvm.lifetime.end.p0(i64 8, ptr nonnull %4)
  br label %29

27:                                               ; preds = %21
  %28 = load ptr, ptr %4, align 8
  call void @llvm.lifetime.end.p0(i64 8, ptr nonnull %4)
  call void @Curl_conn_cf_add(ptr noundef nonnull %0, ptr noundef nonnull %1, i32 noundef %2, ptr noundef %28) #18
  br label %29

29:                                               ; preds = %cf_ssl_create.exit.thread, %27
  %.01224.i9 = phi i32 [ %.01224.i.ph, %cf_ssl_create.exit.thread ], [ 0, %27 ]
  ret i32 %.01224.i9
}